#include <math.h>
#include <stdio.h>
#include <stdlib.h>
#include <string.h>

int main()
{
    int a[300]={0},n=0,i,j,t;
    char c;
    do
    {
        scanf("%d%c",&a[n++],&c);
    }while(c==',');
    for(i=0;i<n-1;i++)
        for(j=0;j<n-i;j++)
            if(a[j]<a[j+1])
            {
                t=a[j];
                a[j]=a[j+1];
                a[j+1]=t;
            };
    t=0;
    while(a[t]==a[0]&&t<n) t++;
    if(t==n) printf("No\n");
        else printf("%d",a[t]);
}