; ModuleID = 'source-C-CXX/21/944.c'
source_filename = "source-C-CXX/21/944.c"
target datalayout = "e-m:e-p270:32:32-p271:32:32-p272:64:64-i64:64-f80:128-n8:16:32:64-S128"
target triple = "x86_64-pc-linux-gnu"

@.str = private unnamed_addr constant [5 x i8] c"%d%c\00", align 1
@.str.2 = private unnamed_addr constant [3 x i8] c"%d\00", align 1
@str = private unnamed_addr constant [3 x i8] c"No\00", align 1

; Function Attrs: nofree nounwind sspstrong uwtable
define dso_local i32 @main() local_unnamed_addr #0 {
  %1 = alloca [300 x i32], align 16
  %2 = alloca i8, align 1
  %3 = bitcast [300 x i32]* %1 to i8*
  call void @llvm.lifetime.start.p0i8(i64 1200, i8* nonnull %3) #5
  call void @llvm.memset.p0i8.i64(i8* noundef nonnull align 16 dereferenceable(1200) %3, i8 0, i64 1200, i1 false)
  call void @llvm.lifetime.start.p0i8(i64 1, i8* nonnull %2) #5
  br label %4

4:                                                ; preds = %4, %0
  %5 = phi i64 [ %6, %4 ], [ 0, %0 ]
  %6 = add nuw i64 %5, 1
  %7 = getelementptr inbounds [300 x i32], [300 x i32]* %1, i64 0, i64 %5
  %8 = call i32 (i8*, ...) @__isoc99_scanf(i8* getelementptr inbounds ([5 x i8], [5 x i8]* @.str, i64 0, i64 0), i32* nonnull %7, i8* nonnull %2)
  %9 = load i8, i8* %2, align 1, !tbaa !5
  %10 = icmp eq i8 %9, 44
  br i1 %10, label %4, label %11, !llvm.loop !8

11:                                               ; preds = %4
  %12 = trunc i64 %5 to i32
  %13 = trunc i64 %6 to i32
  %14 = icmp eq i32 %12, 0
  br i1 %14, label %28, label %15

15:                                               ; preds = %11
  %16 = getelementptr inbounds [300 x i32], [300 x i32]* %1, i64 0, i64 0
  br label %17

17:                                               ; preds = %15, %59
  %18 = phi i32 [ 0, %15 ], [ %60, %59 ]
  %19 = sub i32 %13, %18
  %20 = zext i32 %19 to i64
  %21 = icmp slt i32 %18, %13
  br i1 %21, label %22, label %59

22:                                               ; preds = %17
  %23 = load i32, i32* %16, align 16, !tbaa !10
  %24 = and i64 %20, 1
  %25 = icmp eq i32 %19, 1
  br i1 %25, label %48, label %26

26:                                               ; preds = %22
  %27 = and i64 %20, 4294967294
  br label %32

28:                                               ; preds = %59, %11
  %29 = getelementptr inbounds [300 x i32], [300 x i32]* %1, i64 0, i64 0
  %30 = load i32, i32* %29, align 16, !tbaa !10
  %31 = and i64 %5, 4294967295
  br label %62

32:                                               ; preds = %80, %26
  %33 = phi i32 [ %23, %26 ], [ %81, %80 ]
  %34 = phi i64 [ 0, %26 ], [ %44, %80 ]
  %35 = phi i64 [ %27, %26 ], [ %82, %80 ]
  %36 = or i64 %34, 1
  %37 = getelementptr inbounds [300 x i32], [300 x i32]* %1, i64 0, i64 %36
  %38 = load i32, i32* %37, align 4, !tbaa !10
  %39 = icmp slt i32 %33, %38
  br i1 %39, label %40, label %42

40:                                               ; preds = %32
  %41 = getelementptr inbounds [300 x i32], [300 x i32]* %1, i64 0, i64 %34
  store i32 %38, i32* %41, align 8, !tbaa !10
  store i32 %33, i32* %37, align 4, !tbaa !10
  br label %42

42:                                               ; preds = %32, %40
  %43 = phi i32 [ %38, %32 ], [ %33, %40 ]
  %44 = add nuw nsw i64 %34, 2
  %45 = getelementptr inbounds [300 x i32], [300 x i32]* %1, i64 0, i64 %44
  %46 = load i32, i32* %45, align 8, !tbaa !10
  %47 = icmp slt i32 %43, %46
  br i1 %47, label %78, label %80

48:                                               ; preds = %80, %22
  %49 = phi i32 [ %23, %22 ], [ %81, %80 ]
  %50 = phi i64 [ 0, %22 ], [ %44, %80 ]
  %51 = icmp eq i64 %24, 0
  br i1 %51, label %59, label %52

52:                                               ; preds = %48
  %53 = add nuw nsw i64 %50, 1
  %54 = getelementptr inbounds [300 x i32], [300 x i32]* %1, i64 0, i64 %53
  %55 = load i32, i32* %54, align 4, !tbaa !10
  %56 = icmp slt i32 %49, %55
  br i1 %56, label %57, label %59

57:                                               ; preds = %52
  %58 = getelementptr inbounds [300 x i32], [300 x i32]* %1, i64 0, i64 %50
  store i32 %55, i32* %58, align 4, !tbaa !10
  store i32 %49, i32* %54, align 4, !tbaa !10
  br label %59

59:                                               ; preds = %48, %52, %57, %17
  %60 = add nuw nsw i32 %18, 1
  %61 = icmp eq i32 %60, %12
  br i1 %61, label %28, label %17, !llvm.loop !12

62:                                               ; preds = %28, %62
  %63 = phi i64 [ 1, %28 ], [ %69, %62 ]
  %64 = getelementptr inbounds [300 x i32], [300 x i32]* %1, i64 0, i64 %63
  %65 = load i32, i32* %64, align 4, !tbaa !10
  %66 = icmp eq i32 %65, %30
  %67 = icmp ule i64 %63, %31
  %68 = select i1 %66, i1 %67, i1 false
  %69 = add nuw i64 %63, 1
  br i1 %68, label %62, label %70, !llvm.loop !13

70:                                               ; preds = %62
  %71 = trunc i64 %63 to i32
  %72 = icmp eq i32 %71, %13
  br i1 %72, label %73, label %75

73:                                               ; preds = %70
  %74 = call i32 @puts(i8* nonnull dereferenceable(1) getelementptr inbounds ([3 x i8], [3 x i8]* @str, i64 0, i64 0))
  br label %77

75:                                               ; preds = %70
  %76 = call i32 (i8*, ...) @printf(i8* nonnull dereferenceable(1) getelementptr inbounds ([3 x i8], [3 x i8]* @.str.2, i64 0, i64 0), i32 %65)
  br label %77

77:                                               ; preds = %75, %73
  call void @llvm.lifetime.end.p0i8(i64 1, i8* nonnull %2) #5
  call void @llvm.lifetime.end.p0i8(i64 1200, i8* nonnull %3) #5
  ret i32 0

78:                                               ; preds = %42
  %79 = getelementptr inbounds [300 x i32], [300 x i32]* %1, i64 0, i64 %36
  store i32 %46, i32* %79, align 4, !tbaa !10
  store i32 %43, i32* %45, align 8, !tbaa !10
  br label %80

80:                                               ; preds = %78, %42
  %81 = phi i32 [ %46, %42 ], [ %43, %78 ]
  %82 = add i64 %35, -2
  %83 = icmp eq i64 %82, 0
  br i1 %83, label %48, label %32, !llvm.loop !14
}

; Function Attrs: argmemonly mustprogress nofree nosync nounwind willreturn
declare void @llvm.lifetime.start.p0i8(i64 immarg, i8* nocapture) #1

; Function Attrs: argmemonly mustprogress nofree nounwind willreturn writeonly
declare void @llvm.memset.p0i8.i64(i8* nocapture writeonly, i8, i64, i1 immarg) #2

; Function Attrs: nofree nounwind
declare noundef i32 @__isoc99_scanf(i8* nocapture noundef readonly, ...) local_unnamed_addr #3

; Function Attrs: nofree nounwind
declare noundef i32 @printf(i8* nocapture noundef readonly, ...) local_unnamed_addr #3

; Function Attrs: argmemonly mustprogress nofree nosync nounwind willreturn
declare void @llvm.lifetime.end.p0i8(i64 immarg, i8* nocapture) #1

; Function Attrs: nofree nounwind
declare noundef i32 @puts(i8* nocapture noundef readonly) local_unnamed_addr #4


!llvm.module.flags = !{!0, !1, !2, !3}
!llvm.ident = !{!4}

!0 = !{i32 1, !"wchar_size", i32 4}
!1 = !{i32 7, !"PIC Level", i32 2}
!2 = !{i32 7, !"PIE Level", i32 2}
!3 = !{i32 7, !"uwtable", i32 1}
!4 = !{!"clang version 13.0.0"}
!5 = !{!6, !6, i64 0}
!6 = !{!"omnipotent char", !7, i64 0}
!7 = !{!"Simple C/C++ TBAA"}
!8 = distinct !{!8, !9}
!9 = !{!"llvm.loop.mustprogress"}
!10 = !{!11, !11, i64 0}
!11 = !{!"int", !6, i64 0}
!12 = distinct !{!12, !9}
!13 = distinct !{!13, !9}
!14 = distinct !{!14, !9}
